Certificate:
    Data:
        Version: 3 (0x2)
        Serial Number: 1 (0x1)
        Signature Algorithm: sha256WithRSAEncryption
        Issuer: C=IL, ST=TLV, L=TelAviv, O=MongoDB, CN=bigid.com
        Validity
            Not Before: Nov 23 03:06:11 2019 GMT
            Not After : Nov 22 03:06:11 2020 GMT
        Subject: C=IL, ST=TLV, O=MongoDB, OU=mongoservers, CN=bigid-mongo.bigid.com
        Subject Public Key Info:
            Public Key Algorithm: rsaEncryption
                RSA Public-Key: (2048 bit)
                Modulus:
                    00:b4:02:ff:91:aa:32:3b:5f:7a:d8:ee:32:ff:8c:
                    54:83:7a:32:bc:c2:05:21:2b:92:82:5e:9b:41:46:
                    2d:75:7b:0a:ea:cf:84:5e:76:df:45:a1:79:67:12:
                    60:c4:36:bc:fb:a1:e7:83:c4:71:62:21:b3:2d:b1:
                    17:00:e6:44:cf:2c:27:60:04:cb:d1:25:ce:6d:4b:
                    8b:71:dc:6c:13:28:be:bc:ac:6b:bf:e6:2e:d0:cb:
                    79:be:6f:9e:f4:20:f6:3b:f3:03:80:3a:1f:17:22:
                    c7:0d:4f:d1:90:38:3d:26:8d:e0:1c:b0:9e:e0:29:
                    a8:bf:fb:99:6d:ae:06:53:f7:93:04:6b:d8:25:96:
                    93:7f:cb:3e:4c:b4:75:ca:ba:b3:3e:b7:df:1f:ba:
                    7a:5d:e9:f1:55:a2:d4:37:7e:3d:b0:19:4f:d2:24:
                    bd:51:4c:91:55:0a:7e:0f:93:e3:36:e2:4a:10:52:
                    cd:9a:5d:79:b8:a3:26:12:e6:cf:2f:ed:15:4e:f6:
                    c9:dd:a6:58:e7:ee:1d:8c:1b:e2:39:94:2c:87:d4:
                    7f:c8:97:09:17:48:2f:d2:17:b5:23:80:92:47:fa:
                    aa:5f:ee:e1:4e:71:81:c7:d7:10:49:31:93:77:f5:
                    05:94:3a:1c:ec:64:6f:00:41:16:a9:0d:d7:ed:aa:
                    e6:eb
                Exponent: 65537 (0x10001)
        X509v3 extensions:
            X509v3 Basic Constraints: 
                CA:FALSE
            X509v3 Key Usage: 
                Digital Signature, Non Repudiation, Key Encipherment
            X509v3 Subject Alternative Name: 
                DNS:bigid-mongo.bigid.com, DNS:bigid-mongo, IP Address:192.168.1.234
    Signature Algorithm: sha256WithRSAEncryption
         af:09:3b:bc:c9:17:65:35:60:36:31:68:db:df:86:aa:8b:f2:
         ab:26:96:04:7a:2d:cd:47:71:ea:fe:5e:12:59:d3:c1:e8:3c:
         a9:f9:0b:0c:0f:44:b2:f4:8a:35:6e:ee:aa:e1:96:7f:31:89:
         15:48:9c:66:2e:91:8c:9b:ae:a9:02:95:92:9f:6e:a6:18:6f:
         0b:fc:4e:68:db:d1:7d:ca:ef:ff:9b:ab:eb:c2:6c:e0:19:b0:
         eb:6f:60:60:62:71:42:72:1a:24:ec:bb:29:c6:2a:93:2e:31:
         ac:27:36:3c:4a:5b:b9:8c:ae:f4:97:a1:db:9b:70:4a:d9:56:
         f9:2a:ed:fd:20:28:f4:19:f2:66:1f:08:8a:d6:84:9a:3e:23:
         bb:a6:13:5c:99:99:18:23:96:6c:d8:54:df:88:c2:58:17:29:
         a5:56:62:4c:05:24:03:7e:70:97:f4:f0:7e:ca:50:5c:7c:73:
         4c:b2:5c:81:e4:70:97:80:43:5e:69:5f:96:86:68:01:6e:8f:
         39:5b:01:10:bb:c4:87:1a:d0:cd:41:51:4a:b4:88:3b:69:2b:
         92:0a:4f:5c:e0:4f:b8:2c:68:59:bf:e2:6d:e8:af:1a:47:a0:
         61:25:b5:d3:81:29:d5:15:f5:14:b4:cf:f7:e9:10:e3:63:4a:
         71:4b:cb:26
-----BEGIN CERTIFICATE-----
MIIDgTCCAmmgAwIBAgIBATANBgkqhkiG9w0BAQsFADBTMQswCQYDVQQGEwJJTDEM
MAoGA1UECAwDVExWMRAwDgYDVQQHDAdUZWxBdml2MRAwDgYDVQQKDAdNb25nb0RC
MRIwEAYDVQQDDAliaWdpZC5jb20wHhcNMTkxMTIzMDMwNjExWhcNMjAxMTIyMDMw
NjExWjBkMQswCQYDVQQGEwJJTDEMMAoGA1UECAwDVExWMRAwDgYDVQQKDAdNb25n
b0RCMRUwEwYDVQQLDAxtb25nb3NlcnZlcnMxHjAcBgNVBAMMFWJpZ2lkLW1vbmdv
LmJpZ2lkLmNvbTCCASIwDQYJKoZIhvcNAQEBBQADggEPADCCAQoCggEBALQC/5Gq
MjtfetjuMv+MVIN6MrzCBSErkoJem0FGLXV7CurPhF5230WheWcSYMQ2vPuh54PE
cWIhsy2xFwDmRM8sJ2AEy9Elzm1Li3HcbBMovrysa7/mLtDLeb5vnvQg9jvzA4A6
Hxcixw1P0ZA4PSaN4BywnuApqL/7mW2uBlP3kwRr2CWWk3/LPky0dcq6sz633x+6
el3p8VWi1Dd+PbAZT9IkvVFMkVUKfg+T4zbiShBSzZpdebijJhLmzy/tFU72yd2m
WOfuHYwb4jmULIfUf8iXCRdIL9IXtSOAkkf6ql/u4U5xgcfXEEkxk3f1BZQ6HOxk
bwBBFqkN1+2q5usCAwEAAaNPME0wCQYDVR0TBAIwADALBgNVHQ8EBAMCBeAwMwYD
VR0RBCwwKoIVYmlnaWQtbW9uZ28uYmlnaWQuY29tggtiaWdpZC1tb25nb4cEwKgB
6jANBgkqhkiG9w0BAQsFAAOCAQEArwk7vMkXZTVgNjFo29+GqovyqyaWBHotzUdx
6v5eElnTweg8qfkLDA9EsvSKNW7uquGWfzGJFUicZi6RjJuuqQKVkp9uphhvC/xO
aNvRfcrv/5ur68Js4Bmw629gYGJxQnIaJOy7KcYqky4xrCc2PEpbuYyu9Jeh25tw
StlW+Srt/SAo9BnyZh8IitaEmj4ju6YTXJmZGCOWbNhU34jCWBcppVZiTAUkA35w
l/TwfspQXHxzTLJcgeRwl4BDXmlfloZoAW6POVsBELvEhxrQzUFRSrSIO2krkgpP
XOBPuCxoWb/ibeivGkegYSW104Ep1RX1FLTP9+kQ42NKcUvLJg==
-----END CERTIFICATE-----
-----BEGIN PRIVATE KEY-----
MIIEvgIBADANBgkqhkiG9w0BAQEFAASCBKgwggSkAgEAAoIBAQC0Av+RqjI7X3rY
7jL/jFSDejK8wgUhK5KCXptBRi11ewrqz4Redt9FoXlnEmDENrz7oeeDxHFiIbMt
sRcA5kTPLCdgBMvRJc5tS4tx3GwTKL68rGu/5i7Qy3m+b570IPY78wOAOh8XIscN
T9GQOD0mjeAcsJ7gKai/+5ltrgZT95MEa9gllpN/yz5MtHXKurM+t98funpd6fFV
otQ3fj2wGU/SJL1RTJFVCn4Pk+M24koQUs2aXXm4oyYS5s8v7RVO9sndpljn7h2M
G+I5lCyH1H/IlwkXSC/SF7UjgJJH+qpf7uFOcYHH1xBJMZN39QWUOhzsZG8AQRap
DdftqubrAgMBAAECggEAWN6+E8kFwaAywxReIyHBu6NBl0TmSWj8jNZuKbyexsg3
LJPE0uo28mZ0zDkbguNPS5+z7661F3BxyFYMeEo2oF05F0Nm6FuU3QqVzmG3DYJp
IDazf2sBo91Avo7W18nKJvCjwtNu8/occWr9mAjbz8PtZ9yeoyaOBDIPnkFzKFJW
umXwrEvESipH7oydFT/ix4npepHTGIqUVtO5/8OVGAuTxCXf5KPPkSTgNhSltAdU
/dA+QVZALxKQa3sZ0B1TNkIQ2VR7LuVOrYNFTxEpvWaP7PodTHrfDhob1fwuV9a/
XTBIDNk1cULmGd2GL2T2BCUCAk7meqQ4SIrpFsrv+QKBgQDc8oC2yyRCJrEkNYP9
78Bm3FYw1S2qm3Fh22NxXjK3YNM+me1Cr8VbcWG1WpOlJp9oKCJNPyrXI2ICo50D
6jupgkJGPZFEj4RZumqhD7Hgh1lew9qfXxYuycugFwcIXXE9cotMPNMdQBRzs1R0
YwksrZcyWVchjwiy4d0+cLXtZwKBgQDQkfLkQNTJ5jQ8N6QVolWY6HDZMgUOZ97h
3UK5+W4L+1HXltFvS+2b3sw2TriDDYHtSJsgP/Gv+9ipWUe+EKX+RiXM79W++DBP
Sg+8Xr3m9VSL4HE6lOnTEg06XrTUkV2G4UEjdMfTo1DWxA7rqSvkupa+/9Jv7243
myQV2M1D3QKBgFQnwcLeCQdxOVNzVrzoDr6e+e1LpUMwRbViHLRXjrWuGYfklSwr
St6ThwXOZCIpXdoMP1Rw1N5wyan7q5iMJQFhbeDXHnegumZ6zJZgJf5BT1b6/lBp
pUdY8UgevT0AaltfP5NgL4EaoS+YhHh4KExuKgKxaLCNjGCmCuD3iTPNAoGBALj6
eD1P8mkOLg2qG3DEhL4UiOFYp3tbTCVtoxxlx+AAiVl3fVAEOzweoWcY8jPo6u6T
kmFL1QKLjmDDugkrosydUjEsFJpGbDImMUaTkEEiHFXiPQoDwE1emTTHggF020og
xTC5BfEBy1Rulf0UEMXPZpsHMI/t/gZ7JcnqekJRAoGBAKb29NsYhZjkZecPK5db
v+E5KfSNrmMBcthKXUcApKRyjABVkFf2tEBM+kwDFom3BJIouNiJIBBtHZpeniYE
e7nonfRU5qwxT6Ra5FGycA1jeyUleE3we6T+t2pyrP4rJTuRb3N2HOQFz03i2K0V
XJto6jh5Qk7Df+d/W89uSws+
-----END PRIVATE KEY-----
